; Function Attrs: nounwind uwtable
define internal i32 @blake2_mac_update(ptr noundef %0, ptr noundef %1, i64 noundef %2) #0 {
  %4 = icmp eq i64 %2, 0
  br i1 %4, label %7, label %5

5:                                                ; preds = %3
  %6 = tail call i32 @ossl_blake2s_update(ptr noundef %0, ptr noundef %1, i64 noundef %2) #6
  br label %7

7:                                                ; preds = %3, %5
  %.0 = phi i32 [ %6, %5 ], [ 1, %3 ]
  ret i32 %.0
}